target datalayout = "e-m:e-p270:32:32-p271:32:32-p272:64:64-i64:64-i128:128-f80:128-n8:16:32:64-S128"
target triple = "x86_64-pc-linux-gnu"

%struct.AVRational = type { i32, i32 }
%struct.MOVAtom = type { i32, i64 }
%struct.MOVContext = type { ptr, ptr, i32, i64, i32, i32, i32, i32, i32, i32, ptr, i32, ptr, ptr, i32, %struct.MOVFragment, ptr, i32, i32, i32, ptr, i32, i32, i32, i32, i32, i32, i32, i64, i32, i32, ptr, i32, i32, i32, i32, i32, %struct.MOVFragmentIndex, i32, i32, [20 x i8], [20 x i8], ptr, i32, ptr, i32, ptr, i32, ptr, i32, ptr, ptr, i32, i32, [3 x [3 x i32]], i32, i32, i32, i32, i32, ptr, i32, ptr, i32, i32, i64, i32 }
%struct.MOVFragment = type { i32, i32, i64, i64, i64, i32, i32, i32, i32 }
%struct.MOVFragmentIndex = type { i32, i32, i32, i32, ptr }
%struct.AVFormatContext = type { ptr, ptr, ptr, ptr, ptr, i32, i32, ptr, i32, ptr, i32, ptr, ptr, i64, i64, i64, i32, i32, i32, i64, i64, ptr, i32, i32, ptr, i32, i32, i32, i32, ptr, i64, i32, i32, %struct.AVIOInterruptCB, i32, i32, i32, i32, i64, i32, i32, i32, i32, i32, i32, i32, i32, i32, i32, i32, i32, i64, i32, i32, i32, i32, i32, ptr, ptr, ptr, ptr, i32, ptr, ptr, ptr, ptr, i32, ptr, ptr, i64, ptr, ptr, ptr, i64 }
%struct.AVIOInterruptCB = type { ptr, ptr }
%struct.AVStream = type { ptr, i32, i32, ptr, ptr, %struct.AVRational, i64, i64, i64, i32, i32, %struct.AVRational, ptr, %struct.AVRational, %struct.AVPacket, i32, %struct.AVRational, i32 }
%struct.AVPacket = type { ptr, i64, i64, ptr, i32, i32, i32, ptr, i32, i64, i64, ptr, ptr, %struct.AVRational }
%struct.MOVStreamContext = type { ptr, i32, i32, i32, i32, i32, i32, ptr, i32, i32, ptr, i32, i32, ptr, i32, ptr, i32, i32, ptr, i32, ptr, i32, i32, i32, ptr, ptr, i32, i32, i32, i32, i32, i32, ptr, i32, i32, ptr, i32, i64, i64, i32, i64, ptr, ptr, i32, i32, i32, i32, i16, i32, ptr, i32, i32, i32, i32, i32, i32, i32, i32, i32, [256 x i32], i32, i64, i32, i8, i64, i32, i32, ptr, i32, ptr, ptr, i32, ptr, i32, ptr, i32, i32, i32, i64, ptr, ptr, i32, i32, i32, ptr, ptr, i64, ptr, i64, ptr, i64, ptr, i64, ptr, i64, i32, i32, %struct.anon, ptr, i32 }
%struct.anon = type { ptr, ptr, i32, ptr, ptr }
%struct.AVEncryptionInfo = type { i32, i32, i32, ptr, i32, ptr, i32, ptr, i32 }

@.str.271 = private unnamed_addr constant [58 x i8] c"schm boxes are only supported in first sample descriptor\0A\00", align 1

; Function Attrs: nounwind uwtable
define internal i32 @mov_read_schm(ptr noundef %0, ptr noundef %1, i32 %2, i64 %3) #0 {
  %5 = alloca i32, align 4
  %6 = alloca %struct.MOVAtom, align 8
  %7 = alloca ptr, align 8
  %8 = alloca ptr, align 8
  %9 = alloca ptr, align 8
  %10 = alloca ptr, align 8
  %11 = alloca i32, align 4
  %12 = getelementptr inbounds nuw { i32, i64 }, ptr %6, i32 0, i32 0
  store i32 %2, ptr %12, align 8
  %13 = getelementptr inbounds nuw { i32, i64 }, ptr %6, i32 0, i32 1
  store i64 %3, ptr %13, align 8
  store ptr %0, ptr %7, align 8, !tbaa !4
  store ptr %1, ptr %8, align 8, !tbaa !9
  call void @llvm.lifetime.start.p0(i64 8, ptr %9) #14
  call void @llvm.lifetime.start.p0(i64 8, ptr %10) #14
  %14 = load ptr, ptr %7, align 8, !tbaa !4
  %15 = getelementptr inbounds nuw %struct.MOVContext, ptr %14, i32 0, i32 1
  %16 = load ptr, ptr %15, align 8, !tbaa !13
  %17 = getelementptr inbounds nuw %struct.AVFormatContext, ptr %16, i32 0, i32 6
  %18 = load i32, ptr %17, align 4, !tbaa !30
  %19 = icmp ult i32 %18, 1
  br i1 %19, label %20, label %21

20:                                               ; preds = %4
  store i32 0, ptr %5, align 4
  store i32 1, ptr %11, align 4
  br label %80

21:                                               ; preds = %4
  %22 = load ptr, ptr %7, align 8, !tbaa !4
  %23 = getelementptr inbounds nuw %struct.MOVContext, ptr %22, i32 0, i32 1
  %24 = load ptr, ptr %23, align 8, !tbaa !13
  %25 = getelementptr inbounds nuw %struct.AVFormatContext, ptr %24, i32 0, i32 7
  %26 = load ptr, ptr %25, align 8, !tbaa !41
  %27 = load ptr, ptr %7, align 8, !tbaa !4
  %28 = getelementptr inbounds nuw %struct.MOVContext, ptr %27, i32 0, i32 1
  %29 = load ptr, ptr %28, align 8, !tbaa !13
  %30 = getelementptr inbounds nuw %struct.AVFormatContext, ptr %29, i32 0, i32 6
  %31 = load i32, ptr %30, align 4, !tbaa !30
  %32 = sub i32 %31, 1
  %33 = zext i32 %32 to i64
  %34 = getelementptr inbounds nuw ptr, ptr %26, i64 %33
  %35 = load ptr, ptr %34, align 8, !tbaa !42
  store ptr %35, ptr %9, align 8, !tbaa !42
  %36 = load ptr, ptr %9, align 8, !tbaa !42
  %37 = getelementptr inbounds nuw %struct.AVStream, ptr %36, i32 0, i32 4
  %38 = load ptr, ptr %37, align 8, !tbaa !44
  store ptr %38, ptr %10, align 8, !tbaa !51
  %39 = load ptr, ptr %10, align 8, !tbaa !51
  %40 = getelementptr inbounds nuw %struct.MOVStreamContext, ptr %39, i32 0, i32 46
  %41 = load i32, ptr %40, align 4, !tbaa !86
  %42 = icmp ne i32 %41, 0
  br i1 %42, label %43, label %47

43:                                               ; preds = %21
  %44 = load ptr, ptr %7, align 8, !tbaa !4
  %45 = getelementptr inbounds nuw %struct.MOVContext, ptr %44, i32 0, i32 1
  %46 = load ptr, ptr %45, align 8, !tbaa !13
  call void (ptr, i32, ptr, ...) @av_log(ptr noundef %46, i32 noundef 16, ptr noundef @.str.271)
  store i32 -1163346256, ptr %5, align 4
  store i32 1, ptr %11, align 4
  br label %80

47:                                               ; preds = %21
  %48 = getelementptr inbounds nuw %struct.MOVAtom, ptr %6, i32 0, i32 1
  %49 = load i64, ptr %48, align 8, !tbaa !58
  %50 = icmp slt i64 %49, 8
  br i1 %50, label %51, label %52

51:                                               ; preds = %47
  store i32 -1094995529, ptr %5, align 4
  store i32 1, ptr %11, align 4
  br label %80

52:                                               ; preds = %47
  %53 = load ptr, ptr %8, align 8, !tbaa !9
  %54 = call i32 @avio_rb32(ptr noundef %53)
  %55 = load ptr, ptr %10, align 8, !tbaa !51
  %56 = getelementptr inbounds nuw %struct.MOVStreamContext, ptr %55, i32 0, i32 97
  %57 = getelementptr inbounds nuw %struct.anon, ptr %56, i32 0, i32 3
  %58 = load ptr, ptr %57, align 8, !tbaa !495
  %59 = icmp ne ptr %58, null
  br i1 %59, label %72, label %60

60:                                               ; preds = %52
  %61 = call ptr @av_encryption_info_alloc(i32 noundef 0, i32 noundef 16, i32 noundef 16)
  %62 = load ptr, ptr %10, align 8, !tbaa !51
  %63 = getelementptr inbounds nuw %struct.MOVStreamContext, ptr %62, i32 0, i32 97
  %64 = getelementptr inbounds nuw %struct.anon, ptr %63, i32 0, i32 3
  store ptr %61, ptr %64, align 8, !tbaa !495
  %65 = load ptr, ptr %10, align 8, !tbaa !51
  %66 = getelementptr inbounds nuw %struct.MOVStreamContext, ptr %65, i32 0, i32 97
  %67 = getelementptr inbounds nuw %struct.anon, ptr %66, i32 0, i32 3
  %68 = load ptr, ptr %67, align 8, !tbaa !495
  %69 = icmp ne ptr %68, null
  br i1 %69, label %71, label %70

70:                                               ; preds = %60
  store i32 -12, ptr %5, align 4
  store i32 1, ptr %11, align 4
  br label %80

71:                                               ; preds = %60
  br label %72

72:                                               ; preds = %71, %52
  %73 = load ptr, ptr %8, align 8, !tbaa !9
  %74 = call i32 @avio_rb32(ptr noundef %73)
  %75 = load ptr, ptr %10, align 8, !tbaa !51
  %76 = getelementptr inbounds nuw %struct.MOVStreamContext, ptr %75, i32 0, i32 97
  %77 = getelementptr inbounds nuw %struct.anon, ptr %76, i32 0, i32 3
  %78 = load ptr, ptr %77, align 8, !tbaa !495
  %79 = getelementptr inbounds nuw %struct.AVEncryptionInfo, ptr %78, i32 0, i32 0
  store i32 %74, ptr %79, align 8, !tbaa !496
  store i32 0, ptr %5, align 4
  store i32 1, ptr %11, align 4
  br label %80

80:                                               ; preds = %72, %70, %51, %43, %20
  call void @llvm.lifetime.end.p0(i64 8, ptr %10) #14
  call void @llvm.lifetime.end.p0(i64 8, ptr %9) #14
  %81 = load i32, ptr %5, align 4
  ret i32 %81
}