; Function Attrs: nounwind uwtable
define internal range(i32 -1163346256, 1) i32 @mov_read_schm(ptr noundef readonly captures(none) %0, ptr noundef %1, i32 %2, i64 %3) #0 {
  %5 = getelementptr inbounds nuw i8, ptr %0, i64 8
  %6 = load ptr, ptr %5, align 8, !tbaa !4
  %7 = getelementptr inbounds nuw i8, ptr %6, i64 44
  %8 = load i32, ptr %7, align 4, !tbaa !25
  %9 = icmp eq i32 %8, 0
  br i1 %9, label %33, label %10

10:                                               ; preds = %4
  %11 = getelementptr inbounds nuw i8, ptr %6, i64 48
  %12 = load ptr, ptr %11, align 8, !tbaa !37
  %13 = add i32 %8, -1
  %14 = zext i32 %13 to i64
  %15 = getelementptr inbounds nuw ptr, ptr %12, i64 %14
  %16 = load ptr, ptr %15, align 8, !tbaa !38
  %17 = getelementptr inbounds nuw i8, ptr %16, i64 24
  %18 = load ptr, ptr %17, align 8, !tbaa !40
  %19 = getelementptr inbounds nuw i8, ptr %18, i64 268
  %20 = load i32, ptr %19, align 4, !tbaa !54
  %.not = icmp eq i32 %20, 0
  br i1 %.not, label %22, label %21

21:                                               ; preds = %10
  tail call void (ptr, i32, ptr, ...) @av_log(ptr noundef nonnull %6, i32 noundef 16, ptr noundef nonnull @.str.271) #16
  br label %33

22:                                               ; preds = %10
  %23 = icmp slt i64 %3, 8
  br i1 %23, label %33, label %24

24:                                               ; preds = %22
  %25 = tail call i32 @avio_rb32(ptr noundef %1) #16
  %26 = getelementptr inbounds nuw i8, ptr %18, i64 1624
  %27 = load ptr, ptr %26, align 8, !tbaa !355
  %.not13 = icmp eq ptr %27, null
  br i1 %.not13, label %28, label %30

28:                                               ; preds = %24
  %29 = tail call ptr @av_encryption_info_alloc(i32 noundef 0, i32 noundef 16, i32 noundef 16) #16
  store ptr %29, ptr %26, align 8, !tbaa !355
  %.not14 = icmp eq ptr %29, null
  br i1 %.not14, label %33, label %30

30:                                               ; preds = %28, %24
  %31 = tail call i32 @avio_rb32(ptr noundef %1) #16
  %32 = load ptr, ptr %26, align 8, !tbaa !355
  store i32 %31, ptr %32, align 8, !tbaa !357
  br label %33

33:                                               ; preds = %28, %22, %4, %30, %21
  %.0 = phi i32 [ -1163346256, %21 ], [ 0, %30 ], [ 0, %4 ], [ -1094995529, %22 ], [ -12, %28 ]
  ret i32 %.0
}